; ModuleID = '5/1143.c'
source_filename = "5/1143.c"
target datalayout = "e-m:e-p270:32:32-p271:32:32-p272:64:64-i64:64-f80:128-n8:16:32:64-S128"
target triple = "x86_64-pc-linux-gnu"

@.str = private unnamed_addr constant [4 x i8] c"%lf\00", align 1
@.str.1 = private unnamed_addr constant [3 x i8] c"%s\00", align 1
@.str.2 = private unnamed_addr constant [2 x i8] c"\0A\00", align 1
@.str.3 = private unnamed_addr constant [6 x i8] c"error\00", align 1
@.str.4 = private unnamed_addr constant [4 x i8] c"yes\00", align 1
@.str.5 = private unnamed_addr constant [3 x i8] c"no\00", align 1

; Function Attrs: noinline nounwind uwtable
define dso_local i32 @main() #0 {
  %1 = alloca i32, align 4
  %2 = alloca i32, align 4
  %3 = alloca i32, align 4
  %4 = alloca i32, align 4
  %5 = alloca i32, align 4
  %6 = alloca double, align 8
  %7 = alloca double, align 8
  %8 = alloca [501 x i8], align 16
  %9 = alloca [501 x i8], align 16
  store i32 0, i32* %1, align 4
  store i32 0, i32* %5, align 4
  %10 = call i32 (i8*, ...) @__isoc99_scanf(i8* getelementptr inbounds ([4 x i8], [4 x i8]* @.str, i64 0, i64 0), double* %6)
  %11 = getelementptr inbounds [501 x i8], [501 x i8]* %8, i64 0, i64 0
  %12 = call i32 (i8*, ...) @__isoc99_scanf(i8* getelementptr inbounds ([3 x i8], [3 x i8]* @.str.1, i64 0, i64 0), i8* %11)
  %13 = call i32 (i8*, ...) @__isoc99_scanf(i8* getelementptr inbounds ([2 x i8], [2 x i8]* @.str.2, i64 0, i64 0))
  %14 = getelementptr inbounds [501 x i8], [501 x i8]* %9, i64 0, i64 0
  %15 = call i32 (i8*, ...) @__isoc99_scanf(i8* getelementptr inbounds ([3 x i8], [3 x i8]* @.str.1, i64 0, i64 0), i8* %14)
  %16 = getelementptr inbounds [501 x i8], [501 x i8]* %8, i64 0, i64 0
  %17 = call i64 @strlen(i8* %16) #3
  %18 = trunc i64 %17 to i32
  store i32 %18, i32* %2, align 4
  %19 = getelementptr inbounds [501 x i8], [501 x i8]* %9, i64 0, i64 0
  %20 = call i64 @strlen(i8* %19) #3
  %21 = trunc i64 %20 to i32
  store i32 %21, i32* %3, align 4
  %22 = load i32, i32* %2, align 4
  %23 = load i32, i32* %3, align 4
  %24 = icmp ne i32 %22, %23
  br i1 %24, label %25, label %27

25:                                               ; preds = %0
  %26 = call i32 (i8*, ...) @printf(i8* getelementptr inbounds ([6 x i8], [6 x i8]* @.str.3, i64 0, i64 0))
  br label %134

27:                                               ; preds = %0
  store i32 0, i32* %4, align 4
  br label %28

28:                                               ; preds = %108, %27
  %29 = load i32, i32* %4, align 4
  %30 = load i32, i32* %2, align 4
  %31 = icmp slt i32 %29, %30
  br i1 %31, label %32, label %111

32:                                               ; preds = %28
  %33 = load i32, i32* %4, align 4
  %34 = sext i32 %33 to i64
  %35 = getelementptr inbounds [501 x i8], [501 x i8]* %8, i64 0, i64 %34
  %36 = load i8, i8* %35, align 1
  %37 = sext i8 %36 to i32
  %38 = icmp eq i32 %37, 65
  br i1 %38, label %60, label %39

39:                                               ; preds = %32
  %40 = load i32, i32* %4, align 4
  %41 = sext i32 %40 to i64
  %42 = getelementptr inbounds [501 x i8], [501 x i8]* %8, i64 0, i64 %41
  %43 = load i8, i8* %42, align 1
  %44 = sext i8 %43 to i32
  %45 = icmp eq i32 %44, 84
  br i1 %45, label %60, label %46

46:                                               ; preds = %39
  %47 = load i32, i32* %4, align 4
  %48 = sext i32 %47 to i64
  %49 = getelementptr inbounds [501 x i8], [501 x i8]* %8, i64 0, i64 %48
  %50 = load i8, i8* %49, align 1
  %51 = sext i8 %50 to i32
  %52 = icmp eq i32 %51, 67
  br i1 %52, label %60, label %53

53:                                               ; preds = %46
  %54 = load i32, i32* %4, align 4
  %55 = sext i32 %54 to i64
  %56 = getelementptr inbounds [501 x i8], [501 x i8]* %8, i64 0, i64 %55
  %57 = load i8, i8* %56, align 1
  %58 = sext i8 %57 to i32
  %59 = icmp eq i32 %58, 71
  br i1 %59, label %60, label %105

60:                                               ; preds = %53, %46, %39, %32
  %61 = load i32, i32* %4, align 4
  %62 = sext i32 %61 to i64
  %63 = getelementptr inbounds [501 x i8], [501 x i8]* %9, i64 0, i64 %62
  %64 = load i8, i8* %63, align 1
  %65 = sext i8 %64 to i32
  %66 = icmp eq i32 %65, 65
  br i1 %66, label %88, label %67

67:                                               ; preds = %60
  %68 = load i32, i32* %4, align 4
  %69 = sext i32 %68 to i64
  %70 = getelementptr inbounds [501 x i8], [501 x i8]* %9, i64 0, i64 %69
  %71 = load i8, i8* %70, align 1
  %72 = sext i8 %71 to i32
  %73 = icmp eq i32 %72, 84
  br i1 %73, label %88, label %74

74:                                               ; preds = %67
  %75 = load i32, i32* %4, align 4
  %76 = sext i32 %75 to i64
  %77 = getelementptr inbounds [501 x i8], [501 x i8]* %9, i64 0, i64 %76
  %78 = load i8, i8* %77, align 1
  %79 = sext i8 %78 to i32
  %80 = icmp eq i32 %79, 67
  br i1 %80, label %88, label %81

81:                                               ; preds = %74
  %82 = load i32, i32* %4, align 4
  %83 = sext i32 %82 to i64
  %84 = getelementptr inbounds [501 x i8], [501 x i8]* %9, i64 0, i64 %83
  %85 = load i8, i8* %84, align 1
  %86 = sext i8 %85 to i32
  %87 = icmp eq i32 %86, 71
  br i1 %87, label %88, label %105

88:                                               ; preds = %81, %74, %67, %60
  %89 = load i32, i32* %4, align 4
  %90 = sext i32 %89 to i64
  %91 = getelementptr inbounds [501 x i8], [501 x i8]* %8, i64 0, i64 %90
  %92 = load i8, i8* %91, align 1
  %93 = sext i8 %92 to i32
  %94 = load i32, i32* %4, align 4
  %95 = sext i32 %94 to i64
  %96 = getelementptr inbounds [501 x i8], [501 x i8]* %9, i64 0, i64 %95
  %97 = load i8, i8* %96, align 1
  %98 = sext i8 %97 to i32
  %99 = icmp eq i32 %93, %98
  br i1 %99, label %100, label %103

100:                                              ; preds = %88
  %101 = load i32, i32* %5, align 4
  %102 = add nsw i32 %101, 1
  store i32 %102, i32* %5, align 4
  br label %104

103:                                              ; preds = %88
  br label %104

104:                                              ; preds = %103, %100
  br label %107

105:                                              ; preds = %81, %53
  store i32 -1, i32* %5, align 4
  %106 = call i32 (i8*, ...) @printf(i8* getelementptr inbounds ([6 x i8], [6 x i8]* @.str.3, i64 0, i64 0))
  br label %111

107:                                              ; preds = %104
  br label %108

108:                                              ; preds = %107
  %109 = load i32, i32* %4, align 4
  %110 = add nsw i32 %109, 1
  store i32 %110, i32* %4, align 4
  br label %28

111:                                              ; preds = %105, %28
  %112 = load i32, i32* %5, align 4
  %113 = sitofp i32 %112 to double
  %114 = fmul double 1.000000e+00, %113
  %115 = load i32, i32* %2, align 4
  %116 = sitofp i32 %115 to double
  %117 = fdiv double %114, %116
  store double %117, double* %7, align 8
  %118 = load double, double* %7, align 8
  %119 = load double, double* %6, align 8
  %120 = fcmp ogt double %118, %119
  br i1 %120, label %121, label %123

121:                                              ; preds = %111
  %122 = call i32 (i8*, ...) @printf(i8* getelementptr inbounds ([4 x i8], [4 x i8]* @.str.4, i64 0, i64 0))
  br label %133

123:                                              ; preds = %111
  %124 = load double, double* %7, align 8
  %125 = load double, double* %6, align 8
  %126 = fcmp ole double %124, %125
  br i1 %126, label %127, label %132

127:                                              ; preds = %123
  %128 = load i32, i32* %5, align 4
  %129 = icmp ne i32 %128, -1
  br i1 %129, label %130, label %132

130:                                              ; preds = %127
  %131 = call i32 (i8*, ...) @printf(i8* getelementptr inbounds ([3 x i8], [3 x i8]* @.str.5, i64 0, i64 0))
  br label %132

132:                                              ; preds = %130, %127, %123
  br label %133

133:                                              ; preds = %132, %121
  br label %134

134:                                              ; preds = %133, %25
  ret i32 0
}

declare dso_local i32 @__isoc99_scanf(i8*, ...) #1

; Function Attrs: nounwind readonly
declare dso_local i64 @strlen(i8*) #2

declare dso_local i32 @printf(i8*, ...) #1


!llvm.module.flags = !{!0}
!llvm.ident = !{!1}

!0 = !{i32 1, !"wchar_size", i32 4}
!1 = !{!"clang version 10.0.0-4ubuntu1 "}
